target datalayout = "e-m:e-p270:32:32-p271:32:32-p272:64:64-i64:64-i128:128-f80:128-n8:16:32:64-S128"
target triple = "x86_64-pc-linux-gnu"

; Function Attrs: nounwind uwtable
define hidden ptr @mi_reallocarray(ptr noundef %0, i64 noundef %1, i64 noundef %2) #0 {
  %4 = alloca ptr, align 8
  %5 = alloca i64, align 8
  %6 = alloca i64, align 8
  %7 = alloca ptr, align 8
  store ptr %0, ptr %4, align 8, !tbaa !3
  store i64 %1, ptr %5, align 8, !tbaa !7
  store i64 %2, ptr %6, align 8, !tbaa !7
  call void @llvm.lifetime.start.p0(i64 8, ptr %7) #9
  %8 = load ptr, ptr %4, align 8, !tbaa !3
  %9 = load i64, ptr %5, align 8, !tbaa !7
  %10 = load i64, ptr %6, align 8, !tbaa !7
  %11 = call ptr @mi_reallocn(ptr noundef %8, i64 noundef %9, i64 noundef %10)
  store ptr %11, ptr %7, align 8, !tbaa !3
  %12 = load ptr, ptr %7, align 8, !tbaa !3
  %13 = icmp eq ptr %12, null
  br i1 %13, label %14, label %16

14:                                               ; preds = %3
  %15 = call ptr @__errno_location() #10
  store i32 12, ptr %15, align 4, !tbaa !9
  br label %16

16:                                               ; preds = %14, %3
  %17 = load ptr, ptr %7, align 8, !tbaa !3
  call void @llvm.lifetime.end.p0(i64 8, ptr %7) #9
  ret ptr %17
}

; Function Attrs: nounwind uwtable
define hidden i32 @mi_reallocarr(ptr noundef %0, i64 noundef %1, i64 noundef %2) #0 {
  %4 = alloca i32, align 4
  %5 = alloca ptr, align 8
  %6 = alloca i64, align 8
  %7 = alloca i64, align 8
  %8 = alloca ptr, align 8
  %9 = alloca ptr, align 8
  %10 = alloca i32, align 4
  store ptr %0, ptr %5, align 8, !tbaa !3
  store i64 %1, ptr %6, align 8, !tbaa !7
  store i64 %2, ptr %7, align 8, !tbaa !7
  %11 = load ptr, ptr %5, align 8, !tbaa !3
  %12 = icmp eq ptr %11, null
  br i1 %12, label %13, label %15

13:                                               ; preds = %3
  %14 = call ptr @__errno_location() #10
  store i32 22, ptr %14, align 4, !tbaa !9
  store i32 22, ptr %4, align 4
  br label %37

15:                                               ; preds = %3
  call void @llvm.lifetime.start.p0(i64 8, ptr %8) #9
  %16 = load ptr, ptr %5, align 8, !tbaa !3
  store ptr %16, ptr %8, align 8, !tbaa !3
  call void @llvm.lifetime.start.p0(i64 8, ptr %9) #9
  %17 = load ptr, ptr %8, align 8, !tbaa !3
  %18 = load ptr, ptr %17, align 8, !tbaa !3
  %19 = load i64, ptr %6, align 8, !tbaa !7
  %20 = load i64, ptr %7, align 8, !tbaa !7
  %21 = call ptr @mi_reallocarray(ptr noundef %18, i64 noundef %19, i64 noundef %20)
  store ptr %21, ptr %9, align 8, !tbaa !3
  %22 = load ptr, ptr %9, align 8, !tbaa !3
  %23 = icmp eq ptr %22, null
  %24 = xor i1 %23, true
  %25 = xor i1 %24, true
  %26 = zext i1 %25 to i32
  %27 = sext i32 %26 to i64
  %28 = call i64 @llvm.expect.i64(i64 %27, i64 0)
  %29 = icmp ne i64 %28, 0
  br i1 %29, label %30, label %33

30:                                               ; preds = %15
  %31 = call ptr @__errno_location() #10
  %32 = load i32, ptr %31, align 4, !tbaa !9
  store i32 %32, ptr %4, align 4
  store i32 1, ptr %10, align 4
  br label %36

33:                                               ; preds = %15
  %34 = load ptr, ptr %9, align 8, !tbaa !3
  %35 = load ptr, ptr %8, align 8, !tbaa !3
  store ptr %34, ptr %35, align 8, !tbaa !3
  store i32 0, ptr %4, align 4
  store i32 1, ptr %10, align 4
  br label %36

36:                                               ; preds = %33, %30
  call void @llvm.lifetime.end.p0(i64 8, ptr %9) #9
  call void @llvm.lifetime.end.p0(i64 8, ptr %8) #9
  br label %37

37:                                               ; preds = %36, %13
  %38 = load i32, ptr %4, align 4
  ret i32 %38
}