; Function Attrs: nounwind uwtable
define hidden range(i32 0, 23) i32 @mi_reallocarr(ptr noundef captures(address_is_null) %0, i64 noundef %1, i64 noundef %2) local_unnamed_addr #0 {
  %4 = icmp eq ptr %0, null
  br i1 %4, label %5, label %7

5:                                                ; preds = %3
  %6 = tail call ptr @__errno_location() #9
  store i32 22, ptr %6, align 4, !tbaa !8
  br label %13

7:                                                ; preds = %3
  %8 = load ptr, ptr %0, align 8, !tbaa !3
  %9 = tail call ptr @mi_reallocn(ptr noundef %8, i64 noundef %1, i64 noundef %2) #8
  %10 = icmp eq ptr %9, null
  br i1 %10, label %11, label %mi_reallocarray.exit

11:                                               ; preds = %7
  %12 = tail call ptr @__errno_location() #9
  store i32 12, ptr %12, align 4, !tbaa !8
  br label %13

mi_reallocarray.exit:                             ; preds = %7
  store ptr %9, ptr %0, align 8, !tbaa !3
  br label %13

13:                                               ; preds = %11, %mi_reallocarray.exit, %5
  %.0 = phi i32 [ 22, %5 ], [ 12, %11 ], [ 0, %mi_reallocarray.exit ]
  ret i32 %.0
}